; Function Attrs: null_pointer_is_valid sspstrong uwtable
define internal i32 @dissect_ranap_RAI(ptr noundef %0, i32 noundef %1, ptr noundef %2, ptr noundef %3, i32 noundef %4) #0 {
  %6 = getelementptr i8, ptr %2, i64 16
  %.val = load ptr, ptr %6, align 8
  %7 = getelementptr inbounds nuw i8, ptr %.val, i64 408
  %8 = load ptr, ptr %7, align 8
  %9 = load i32, ptr @proto_ranap, align 4
  %10 = tail call ptr @p_get_proto_data(ptr noundef %8, ptr noundef %.val, i32 noundef %9, i32 noundef 0)
  %11 = icmp eq ptr %10, null
  br i1 %11, label %12, label %ranap_get_private_data.exit

12:                                               ; preds = %5
  %13 = load ptr, ptr %7, align 8
  %14 = tail call noalias dereferenceable_or_null(12) ptr @wmem_alloc0(ptr noundef %13, i64 noundef 12) #5
  %15 = load ptr, ptr %7, align 8
  %16 = load i32, ptr @proto_ranap, align 4
  tail call void @p_add_proto_data(ptr noundef %15, ptr noundef %.val, i32 noundef %16, i32 noundef 0, ptr noundef %14)
  br label %ranap_get_private_data.exit

ranap_get_private_data.exit:                      ; preds = %5, %12
  %.0.i = phi ptr [ %14, %12 ], [ %10, %5 ]
  %17 = getelementptr inbounds nuw i8, ptr %.0.i, i64 8
  store i32 2, ptr %17, align 4
  %18 = load i32, ptr @ett_ranap_RAI, align 4
  %19 = tail call i32 @dissect_per_sequence(ptr noundef %0, i32 noundef %1, ptr noundef %2, ptr noundef %3, i32 noundef %4, i32 noundef %18, ptr noundef nonnull @RAI_sequence)
  ret i32 %19
}